target datalayout = "e-m:e-p270:32:32-p271:32:32-p272:64:64-i64:64-i128:128-f80:128-n8:16:32:64-S128"
target triple = "x86_64-pc-linux-gnu"

%struct.H5PB_t = type { i64, i64, i32, i32, i32, i32, i32, i32, ptr, ptr, i64, ptr, ptr, ptr, [2 x i32], [2 x i32], [2 x i32], [2 x i32], [2 x i32] }
%struct.H5F_shared_t = type { ptr, ptr, ptr, i8, i32, i32, %struct.H5F_mtab_t, ptr, i8, i8, i64, i32, i32, i64, i64, ptr, ptr, %struct.H5AC_cache_config_t, %struct.H5AC_cache_image_config_t, i8, i8, ptr, i64, i32, i8, i64, i64, double, i64, i64, i64, i32, i32, i32, i8, i32, ptr, ptr, ptr, ptr, i8, i8, i8, i64, ptr, ptr, i32, i64, i8, i32, i8, i64, i8, [13 x i32], [13 x i64], [13 x ptr], i8, i64, i64, [7 x i32], [7 x i32], %struct.H5F_blk_aggr_t, %struct.H5F_blk_aggr_t, i64, i64, %struct.H5F_meta_accum_t, i32, i32, [30 x ptr], %struct.H5F_object_flush_t, i8, ptr }
%struct.H5F_mtab_t = type { i32, i32, ptr }
%struct.H5AC_cache_config_t = type { i32, i8, i8, i8, [1025 x i8], i8, i8, i64, double, i64, i64, i64, i32, double, double, i8, i64, i32, double, double, i32, double, double, i8, i64, i32, i8, double, i64, i32 }
%struct.H5AC_cache_image_config_t = type { i32, i8, i8, i32 }
%struct.H5F_blk_aggr_t = type { i64, i64, i64, i64, i64 }
%struct.H5F_meta_accum_t = type { ptr, i64, i64, i64, i64, i64, i8 }
%struct.H5F_object_flush_t = type { ptr, ptr }
%struct.H5PB_entry_t = type { ptr, i64, i32, i8, ptr, ptr }

@H5PB_init_g = global i8 0, align 1
@H5_libterm_g = external global i8, align 1
@.str.10 = private unnamed_addr constant [98 x i8] c"generated/home/dtcxzyw/WorkSpace/Projects/compilers/llvm-opt-benchmark/bench/hdf5/hdf5/src/H5PB.c\00", align 1
@H5E_PAGEBUF_g = external global i64, align 8
@H5E_CANTGET_g = external global i64, align 8
@.str.26 = private unnamed_addr constant [30 x i8] c"driver get_eoa request failed\00", align 1
@H5E_WRITEERROR_g = external global i64, align 8
@.str.35 = private unnamed_addr constant [18 x i8] c"file write failed\00", align 1
@__func__.H5PB__write_entry = private unnamed_addr constant [18 x i8] c"H5PB__write_entry\00", align 1

; Function Attrs: nounwind uwtable
define internal i32 @H5PB__write_entry(ptr noundef %0, ptr noundef %1) #0 {
  %3 = alloca i32, align 4
  %4 = alloca ptr, align 8
  %5 = alloca ptr, align 8
  %6 = alloca i64, align 8
  %7 = alloca i32, align 4
  %8 = alloca i8, align 1
  %9 = alloca ptr, align 8
  %10 = alloca i64, align 8
  %11 = alloca i32, align 4
  store ptr %0, ptr %4, align 8, !tbaa !16
  store ptr %1, ptr %5, align 8, !tbaa !56
  call void @llvm.lifetime.start.p0(i64 8, ptr %6) #6
  call void @llvm.lifetime.start.p0(i64 4, ptr %7) #6
  store i32 0, ptr %7, align 4, !tbaa !12
  call void @llvm.lifetime.start.p0(i64 1, ptr %8) #6
  store i8 0, ptr %8, align 1, !tbaa !8
  %12 = load i8, ptr @H5PB_init_g, align 1, !tbaa !8, !range !10, !noundef !11
  %13 = trunc i8 %12 to i1
  br i1 %13, label %18, label %14

14:                                               ; preds = %2
  %15 = load i8, ptr @H5_libterm_g, align 1, !tbaa !8, !range !10, !noundef !11
  %16 = trunc i8 %15 to i1
  %17 = xor i1 %16, true
  br label %18

18:                                               ; preds = %14, %2
  %19 = phi i1 [ true, %2 ], [ %17, %14 ]
  %20 = xor i1 %19, true
  %21 = xor i1 %20, true
  %22 = zext i1 %21 to i32
  %23 = sext i32 %22 to i64
  %24 = call i64 @llvm.expect.i64(i64 %23, i64 1)
  %25 = icmp ne i64 %24, 0
  br i1 %25, label %26, label %121

26:                                               ; preds = %18
  %27 = load ptr, ptr %4, align 8, !tbaa !16
  %28 = load ptr, ptr %5, align 8, !tbaa !56
  %29 = getelementptr inbounds nuw %struct.H5PB_entry_t, ptr %28, i32 0, i32 2
  %30 = load i32, ptr %29, align 8, !tbaa !69
  %31 = call i64 @H5F_shared_get_eoa(ptr noundef %27, i32 noundef %30)
  store i64 %31, ptr %6, align 8, !tbaa !18
  %32 = icmp eq i64 -1, %31
  br i1 %32, label %33, label %52

33:                                               ; preds = %26
  br label %34

34:                                               ; preds = %33
  br label %35

35:                                               ; preds = %34
  br label %36

36:                                               ; preds = %35
  %37 = load i64, ptr @H5E_PAGEBUF_g, align 8, !tbaa !18
  %38 = load i64, ptr @H5E_CANTGET_g, align 8, !tbaa !18
  %39 = call i32 (ptr, ptr, i32, i64, i64, ptr, ...) @H5E_printf_stack(ptr noundef @.str.10, ptr noundef @__func__.H5PB__write_entry, i32 noundef 1530, i64 noundef %37, i64 noundef %38, ptr noundef @.str.26)
  br label %40

40:                                               ; preds = %36
  br label %41

41:                                               ; preds = %40
  store i8 1, ptr %8, align 1, !tbaa !8
  %42 = load i8, ptr %8, align 1, !tbaa !8, !range !10, !noundef !11
  %43 = trunc i8 %42 to i1
  %44 = zext i1 %43 to i8
  store i8 %44, ptr %8, align 1, !tbaa !8
  br label %45

45:                                               ; preds = %41
  br label %46

46:                                               ; preds = %45
  br label %47

47:                                               ; preds = %46
  store i32 -1, ptr %7, align 4, !tbaa !12
  br label %120

48:                                               ; No predecessors!
  br label %49

49:                                               ; preds = %48
  br label %50

50:                                               ; preds = %49
  br label %51

51:                                               ; preds = %50
  br label %52

52:                                               ; preds = %51, %26
  %53 = load ptr, ptr %5, align 8, !tbaa !56
  %54 = getelementptr inbounds nuw %struct.H5PB_entry_t, ptr %53, i32 0, i32 1
  %55 = load i64, ptr %54, align 8, !tbaa !68
  %56 = load i64, ptr %6, align 8, !tbaa !18
  %57 = icmp ule i64 %55, %56
  br i1 %57, label %58, label %117

58:                                               ; preds = %52
  call void @llvm.lifetime.start.p0(i64 8, ptr %9) #6
  call void @llvm.lifetime.start.p0(i64 8, ptr %10) #6
  %59 = load ptr, ptr %4, align 8, !tbaa !16
  %60 = getelementptr inbounds nuw %struct.H5F_shared_t, ptr %59, i32 0, i32 15
  %61 = load ptr, ptr %60, align 8, !tbaa !54
  %62 = getelementptr inbounds nuw %struct.H5PB_t, ptr %61, i32 0, i32 1
  %63 = load i64, ptr %62, align 8, !tbaa !46
  store i64 %63, ptr %10, align 8, !tbaa !18
  %64 = load ptr, ptr %5, align 8, !tbaa !56
  %65 = getelementptr inbounds nuw %struct.H5PB_entry_t, ptr %64, i32 0, i32 1
  %66 = load i64, ptr %65, align 8, !tbaa !68
  %67 = load i64, ptr %10, align 8, !tbaa !18
  %68 = add i64 %66, %67
  %69 = load i64, ptr %6, align 8, !tbaa !18
  %70 = icmp ugt i64 %68, %69
  br i1 %70, label %71, label %77

71:                                               ; preds = %58
  %72 = load i64, ptr %6, align 8, !tbaa !18
  %73 = load ptr, ptr %5, align 8, !tbaa !56
  %74 = getelementptr inbounds nuw %struct.H5PB_entry_t, ptr %73, i32 0, i32 1
  %75 = load i64, ptr %74, align 8, !tbaa !68
  %76 = sub i64 %72, %75
  store i64 %76, ptr %10, align 8, !tbaa !18
  br label %77

77:                                               ; preds = %71, %58
  %78 = load ptr, ptr %4, align 8, !tbaa !16
  %79 = getelementptr inbounds nuw %struct.H5F_shared_t, ptr %78, i32 0, i32 0
  %80 = load ptr, ptr %79, align 8, !tbaa !71
  store ptr %80, ptr %9, align 8, !tbaa !72
  %81 = load ptr, ptr %9, align 8, !tbaa !72
  %82 = load ptr, ptr %5, align 8, !tbaa !56
  %83 = getelementptr inbounds nuw %struct.H5PB_entry_t, ptr %82, i32 0, i32 2
  %84 = load i32, ptr %83, align 8, !tbaa !69
  %85 = load ptr, ptr %5, align 8, !tbaa !56
  %86 = getelementptr inbounds nuw %struct.H5PB_entry_t, ptr %85, i32 0, i32 1
  %87 = load i64, ptr %86, align 8, !tbaa !68
  %88 = load i64, ptr %10, align 8, !tbaa !18
  %89 = load ptr, ptr %5, align 8, !tbaa !56
  %90 = getelementptr inbounds nuw %struct.H5PB_entry_t, ptr %89, i32 0, i32 0
  %91 = load ptr, ptr %90, align 8, !tbaa !67
  %92 = call i32 @H5FD_write(ptr noundef %81, i32 noundef %84, i64 noundef %87, i64 noundef %88, ptr noundef %91)
  %93 = icmp slt i32 %92, 0
  br i1 %93, label %94, label %113

94:                                               ; preds = %77
  br label %95

95:                                               ; preds = %94
  br label %96

96:                                               ; preds = %95
  br label %97

97:                                               ; preds = %96
  %98 = load i64, ptr @H5E_PAGEBUF_g, align 8, !tbaa !18
  %99 = load i64, ptr @H5E_WRITEERROR_g, align 8, !tbaa !18
  %100 = call i32 (ptr, ptr, i32, i64, i64, ptr, ...) @H5E_printf_stack(ptr noundef @.str.10, ptr noundef @__func__.H5PB__write_entry, i32 noundef 1548, i64 noundef %98, i64 noundef %99, ptr noundef @.str.35)
  br label %101

101:                                              ; preds = %97
  br label %102

102:                                              ; preds = %101
  store i8 1, ptr %8, align 1, !tbaa !8
  %103 = load i8, ptr %8, align 1, !tbaa !8, !range !10, !noundef !11
  %104 = trunc i8 %103 to i1
  %105 = zext i1 %104 to i8
  store i8 %105, ptr %8, align 1, !tbaa !8
  br label %106

106:                                              ; preds = %102
  br label %107

107:                                              ; preds = %106
  br label %108

108:                                              ; preds = %107
  store i32 -1, ptr %7, align 4, !tbaa !12
  store i32 10, ptr %11, align 4
  br label %114

109:                                              ; No predecessors!
  br label %110

110:                                              ; preds = %109
  br label %111

111:                                              ; preds = %110
  br label %112

112:                                              ; preds = %111
  br label %113

113:                                              ; preds = %112, %77
  store i32 0, ptr %11, align 4
  br label %114

114:                                              ; preds = %108, %113
  call void @llvm.lifetime.end.p0(i64 8, ptr %10) #6
  call void @llvm.lifetime.end.p0(i64 8, ptr %9) #6
  %115 = load i32, ptr %11, align 4
  switch i32 %115, label %123 [
    i32 0, label %116
    i32 10, label %120
  ]

116:                                              ; preds = %114
  br label %117

117:                                              ; preds = %116, %52
  %118 = load ptr, ptr %5, align 8, !tbaa !56
  %119 = getelementptr inbounds nuw %struct.H5PB_entry_t, ptr %118, i32 0, i32 3
  store i8 0, ptr %119, align 4, !tbaa !57
  br label %120

120:                                              ; preds = %117, %114, %47
  br label %121

121:                                              ; preds = %120, %18
  %122 = load i32, ptr %7, align 4, !tbaa !12
  store i32 %122, ptr %3, align 4
  store i32 1, ptr %11, align 4
  br label %123

123:                                              ; preds = %121, %114
  call void @llvm.lifetime.end.p0(i64 1, ptr %8) #6
  call void @llvm.lifetime.end.p0(i64 4, ptr %7) #6
  call void @llvm.lifetime.end.p0(i64 8, ptr %6) #6
  %124 = load i32, ptr %3, align 4
  ret i32 %124
}