; Function Attrs: nounwind uwtable
define internal fastcc range(i32 -1, 1) i32 @H5PB__write_entry(ptr noundef %0, ptr noundef captures(none) %1) unnamed_addr #4 {
  %3 = load i8, ptr @H5PB_init_g, align 1, !tbaa !3, !range !7, !noundef !8
  %4 = trunc nuw i8 %3 to i1
  %5 = load i8, ptr @H5_libterm_g, align 1, !range !7
  %6 = trunc nuw i8 %5 to i1
  %7 = xor i1 %6, true
  %8 = select i1 %4, i1 true, i1 %7
  br i1 %8, label %9, label %39, !prof !9

9:                                                ; preds = %2
  %10 = getelementptr inbounds nuw i8, ptr %1, i64 16
  %11 = load i32, ptr %10, align 8, !tbaa !64
  %12 = tail call i64 @H5F_shared_get_eoa(ptr noundef %0, i32 noundef %11) #10
  %13 = icmp eq i64 %12, -1
  br i1 %13, label %14, label %18

14:                                               ; preds = %9
  %15 = load i64, ptr @H5E_PAGEBUF_g, align 8, !tbaa !37
  %16 = load i64, ptr @H5E_CANTGET_g, align 8, !tbaa !37
  %17 = tail call i32 (ptr, ptr, i32, i64, i64, ptr, ...) @H5E_printf_stack(ptr noundef nonnull @.str.10, ptr noundef nonnull @__func__.H5PB__write_entry, i32 noundef 1530, i64 noundef %15, i64 noundef %16, ptr noundef nonnull @.str.26) #10
  br label %39

18:                                               ; preds = %9
  %19 = getelementptr inbounds nuw i8, ptr %1, i64 8
  %20 = load i64, ptr %19, align 8, !tbaa !63
  %.not = icmp ugt i64 %20, %12
  br i1 %.not, label %.thread, label %21

21:                                               ; preds = %18
  %22 = getelementptr inbounds nuw i8, ptr %0, i64 104
  %23 = load ptr, ptr %22, align 8, !tbaa !51
  %24 = getelementptr inbounds nuw i8, ptr %23, i64 8
  %25 = load i64, ptr %24, align 8, !tbaa !43
  %26 = add i64 %25, %20
  %27 = icmp ugt i64 %26, %12
  %28 = sub nuw i64 %12, %20
  %spec.select = select i1 %27, i64 %28, i64 %25
  %29 = load ptr, ptr %0, align 8, !tbaa !69
  %30 = load i32, ptr %10, align 8, !tbaa !64
  %31 = load ptr, ptr %1, align 8, !tbaa !62
  %32 = tail call i32 @H5FD_write(ptr noundef %29, i32 noundef %30, i64 noundef %20, i64 noundef %spec.select, ptr noundef %31) #10
  %33 = icmp slt i32 %32, 0
  br i1 %33, label %34, label %.thread

34:                                               ; preds = %21
  %35 = load i64, ptr @H5E_PAGEBUF_g, align 8, !tbaa !37
  %36 = load i64, ptr @H5E_WRITEERROR_g, align 8, !tbaa !37
  %37 = tail call i32 (ptr, ptr, i32, i64, i64, ptr, ...) @H5E_printf_stack(ptr noundef nonnull @.str.10, ptr noundef nonnull @__func__.H5PB__write_entry, i32 noundef 1548, i64 noundef %35, i64 noundef %36, ptr noundef nonnull @.str.35) #10
  br label %39

.thread:                                          ; preds = %21, %18
  %38 = getelementptr inbounds nuw i8, ptr %1, i64 20
  store i8 0, ptr %38, align 4, !tbaa !52
  br label %39

39:                                               ; preds = %34, %2, %.thread, %14
  %.022 = phi i32 [ -1, %14 ], [ -1, %34 ], [ 0, %.thread ], [ 0, %2 ]
  ret i32 %.022
}